; ModuleID = 'source-C-CXX/5/4085.cpp'
source_filename = "source-C-CXX/5/4085.cpp"
target datalayout = "e-m:e-p270:32:32-p271:32:32-p272:64:64-i64:64-f80:128-n8:16:32:64-S128"
target triple = "x86_64-pc-linux-gnu"

%"class.std::ios_base::Init" = type { i8 }
%"class.std::basic_istream" = type { i32 (...)**, i64, %"class.std::basic_ios" }
%"class.std::basic_ios" = type { %"class.std::ios_base", %"class.std::basic_ostream"*, i8, i8, %"class.std::basic_streambuf"*, %"class.std::ctype"*, %"class.std::num_put"*, %"class.std::num_get"* }
%"class.std::ios_base" = type { i32 (...)**, i64, i64, i32, i32, i32, %"struct.std::ios_base::_Callback_list"*, %"struct.std::ios_base::_Words", [8 x %"struct.std::ios_base::_Words"], i32, %"struct.std::ios_base::_Words"*, %"class.std::locale" }
%"struct.std::ios_base::_Callback_list" = type { %"struct.std::ios_base::_Callback_list"*, void (i32, %"class.std::ios_base"*, i32)*, i32, i32 }
%"struct.std::ios_base::_Words" = type { i8*, i64 }
%"class.std::locale" = type { %"class.std::locale::_Impl"* }
%"class.std::locale::_Impl" = type { i32, %"class.std::locale::facet"**, i64, %"class.std::locale::facet"**, i8** }
%"class.std::locale::facet" = type <{ i32 (...)**, i32, [4 x i8] }>
%"class.std::basic_ostream" = type { i32 (...)**, %"class.std::basic_ios" }
%"class.std::basic_streambuf" = type { i32 (...)**, i8*, i8*, i8*, i8*, i8*, i8*, %"class.std::locale" }
%"class.std::ctype" = type <{ %"class.std::locale::facet.base", [4 x i8], %struct.__locale_struct*, i8, [7 x i8], i32*, i32*, i16*, i8, [256 x i8], [256 x i8], i8, [6 x i8] }>
%"class.std::locale::facet.base" = type <{ i32 (...)**, i32 }>
%struct.__locale_struct = type { [13 x %struct.__locale_data*], i16*, i32*, i32*, [13 x i8*] }
%struct.__locale_data = type opaque
%"class.std::num_put" = type { %"class.std::locale::facet.base", [4 x i8] }
%"class.std::num_get" = type { %"class.std::locale::facet.base", [4 x i8] }

@_ZStL8__ioinit = internal global %"class.std::ios_base::Init" zeroinitializer, align 1
@__dso_handle = external hidden global i8
@_ZSt3cin = external global %"class.std::basic_istream", align 8
@_ZSt4cout = external global %"class.std::basic_ostream", align 8
@llvm.global_ctors = appending global [1 x { i32, void ()*, i8* }] [{ i32, void ()*, i8* } { i32 65535, void ()* @_GLOBAL__sub_I_4085.cpp, i8* null }]

declare void @_ZNSt8ios_base4InitC1Ev(%"class.std::ios_base::Init"* nonnull align 1 dereferenceable(1)) unnamed_addr #0

; Function Attrs: nounwind
declare void @_ZNSt8ios_base4InitD1Ev(%"class.std::ios_base::Init"* nonnull align 1 dereferenceable(1)) unnamed_addr #1

; Function Attrs: nofree nounwind
declare i32 @__cxa_atexit(void (i8*)*, i8*, i8*) local_unnamed_addr #2

; Function Attrs: mustprogress norecurse sspstrong uwtable
define dso_local i32 @main() local_unnamed_addr #3 {
  %1 = alloca [10000 x i32], align 16
  %2 = alloca [10000 x i32], align 16
  %3 = alloca [10000 x i32], align 16
  %4 = alloca i32, align 4
  %5 = alloca [10000 x i32], align 16
  %6 = bitcast [10000 x i32]* %1 to i8*
  call void @llvm.lifetime.start.p0i8(i64 40000, i8* nonnull %6) #8
  %7 = bitcast [10000 x i32]* %2 to i8*
  call void @llvm.lifetime.start.p0i8(i64 40000, i8* nonnull %7) #8
  %8 = bitcast [10000 x i32]* %3 to i8*
  call void @llvm.lifetime.start.p0i8(i64 40000, i8* nonnull %8) #8
  %9 = bitcast i32* %4 to i8*
  call void @llvm.lifetime.start.p0i8(i64 4, i8* nonnull %9) #8
  %10 = bitcast [10000 x i32]* %5 to i8*
  call void @llvm.lifetime.start.p0i8(i64 40000, i8* nonnull %10) #8
  call void @llvm.memset.p0i8.i64(i8* noundef nonnull align 16 dereferenceable(40000) %10, i8 0, i64 40000, i1 false)
  %11 = call nonnull align 8 dereferenceable(16) %"class.std::basic_istream"* @_ZNSirsERi(%"class.std::basic_istream"* nonnull align 8 dereferenceable(16) @_ZSt3cin, i32* nonnull align 4 dereferenceable(4) %4)
  %12 = load i32, i32* %4, align 4, !tbaa !5
  %13 = icmp sgt i32 %12, 0
  br i1 %13, label %16, label %105

14:                                               ; preds = %62
  %15 = icmp sgt i32 %64, 0
  br i1 %15, label %67, label %105

16:                                               ; preds = %0, %62
  %17 = phi i64 [ %63, %62 ], [ 0, %0 ]
  %18 = getelementptr inbounds [10000 x i32], [10000 x i32]* %1, i64 0, i64 %17
  %19 = call nonnull align 8 dereferenceable(16) %"class.std::basic_istream"* @_ZNSirsERi(%"class.std::basic_istream"* nonnull align 8 dereferenceable(16) @_ZSt3cin, i32* nonnull align 4 dereferenceable(4) %18)
  %20 = getelementptr inbounds [10000 x i32], [10000 x i32]* %2, i64 0, i64 %17
  %21 = call nonnull align 8 dereferenceable(16) %"class.std::basic_istream"* @_ZNSirsERi(%"class.std::basic_istream"* nonnull align 8 dereferenceable(16) %19, i32* nonnull align 4 dereferenceable(4) %20)
  %22 = getelementptr inbounds [10000 x i32], [10000 x i32]* %5, i64 0, i64 %17
  %23 = load i32, i32* %18, align 4, !tbaa !5
  %24 = load i32, i32* %20, align 4, !tbaa !5
  %25 = mul nsw i32 %24, %23
  %26 = icmp sgt i32 %25, 0
  br i1 %26, label %27, label %62

27:                                               ; preds = %16, %57
  %28 = phi i64 [ %59, %57 ], [ 0, %16 ]
  %29 = getelementptr inbounds [10000 x i32], [10000 x i32]* %3, i64 0, i64 %28
  %30 = call nonnull align 8 dereferenceable(16) %"class.std::basic_istream"* @_ZNSirsERi(%"class.std::basic_istream"* nonnull align 8 dereferenceable(16) @_ZSt3cin, i32* nonnull align 4 dereferenceable(4) %29)
  %31 = load i32, i32* %20, align 4, !tbaa !5
  %32 = sext i32 %31 to i64
  %33 = icmp sgt i64 %28, %32
  %34 = load i32, i32* %18, align 4, !tbaa !5
  br i1 %33, label %37, label %35

35:                                               ; preds = %27
  %36 = mul nsw i32 %31, %34
  br label %51

37:                                               ; preds = %27
  %38 = mul nsw i32 %34, %31
  %39 = sub nsw i32 %38, %31
  %40 = sext i32 %39 to i64
  %41 = icmp sgt i64 %28, %40
  br i1 %41, label %51, label %42

42:                                               ; preds = %37
  %43 = trunc i64 %28 to i32
  %44 = srem i32 %43, %31
  %45 = icmp eq i32 %44, 0
  br i1 %45, label %51, label %46

46:                                               ; preds = %42
  %47 = add nuw nsw i64 %28, 1
  %48 = trunc i64 %47 to i32
  %49 = srem i32 %48, %31
  %50 = icmp eq i32 %49, 0
  br i1 %50, label %51, label %57

51:                                               ; preds = %35, %46, %42, %37
  %52 = phi i32 [ %36, %35 ], [ %38, %46 ], [ %38, %42 ], [ %38, %37 ]
  %53 = load i32, i32* %29, align 4, !tbaa !5
  %54 = load i32, i32* %22, align 4, !tbaa !5
  %55 = add nsw i32 %54, %53
  store i32 %55, i32* %22, align 4, !tbaa !5
  %56 = add nuw nsw i64 %28, 1
  br label %57

57:                                               ; preds = %46, %51
  %58 = phi i32 [ %38, %46 ], [ %52, %51 ]
  %59 = phi i64 [ %47, %46 ], [ %56, %51 ]
  %60 = sext i32 %58 to i64
  %61 = icmp slt i64 %59, %60
  br i1 %61, label %27, label %62, !llvm.loop !9

62:                                               ; preds = %57, %16
  %63 = add nuw nsw i64 %17, 1
  %64 = load i32, i32* %4, align 4, !tbaa !5
  %65 = sext i32 %64 to i64
  %66 = icmp slt i64 %63, %65
  br i1 %66, label %16, label %14, !llvm.loop !11

67:                                               ; preds = %14, %97
  %68 = phi i64 [ %101, %97 ], [ 0, %14 ]
  %69 = getelementptr inbounds [10000 x i32], [10000 x i32]* %5, i64 0, i64 %68
  %70 = load i32, i32* %69, align 4, !tbaa !5
  %71 = call nonnull align 8 dereferenceable(8) %"class.std::basic_ostream"* @_ZNSolsEi(%"class.std::basic_ostream"* nonnull align 8 dereferenceable(8) @_ZSt4cout, i32 %70)
  %72 = bitcast %"class.std::basic_ostream"* %71 to i8**
  %73 = load i8*, i8** %72, align 8, !tbaa !12
  %74 = getelementptr i8, i8* %73, i64 -24
  %75 = bitcast i8* %74 to i64*
  %76 = load i64, i64* %75, align 8
  %77 = bitcast %"class.std::basic_ostream"* %71 to i8*
  %78 = add nsw i64 %76, 240
  %79 = getelementptr inbounds i8, i8* %77, i64 %78
  %80 = bitcast i8* %79 to %"class.std::ctype"**
  %81 = load %"class.std::ctype"*, %"class.std::ctype"** %80, align 8, !tbaa !14
  %82 = icmp eq %"class.std::ctype"* %81, null
  br i1 %82, label %83, label %84

83:                                               ; preds = %67
  call void @_ZSt16__throw_bad_castv() #9
  unreachable

84:                                               ; preds = %67
  %85 = getelementptr inbounds %"class.std::ctype", %"class.std::ctype"* %81, i64 0, i32 8
  %86 = load i8, i8* %85, align 8, !tbaa !18
  %87 = icmp eq i8 %86, 0
  br i1 %87, label %91, label %88

88:                                               ; preds = %84
  %89 = getelementptr inbounds %"class.std::ctype", %"class.std::ctype"* %81, i64 0, i32 9, i64 10
  %90 = load i8, i8* %89, align 1, !tbaa !20
  br label %97

91:                                               ; preds = %84
  call void @_ZNKSt5ctypeIcE13_M_widen_initEv(%"class.std::ctype"* nonnull align 8 dereferenceable(570) %81)
  %92 = bitcast %"class.std::ctype"* %81 to i8 (%"class.std::ctype"*, i8)***
  %93 = load i8 (%"class.std::ctype"*, i8)**, i8 (%"class.std::ctype"*, i8)*** %92, align 8, !tbaa !12
  %94 = getelementptr inbounds i8 (%"class.std::ctype"*, i8)*, i8 (%"class.std::ctype"*, i8)** %93, i64 6
  %95 = load i8 (%"class.std::ctype"*, i8)*, i8 (%"class.std::ctype"*, i8)** %94, align 8
  %96 = call signext i8 %95(%"class.std::ctype"* nonnull align 8 dereferenceable(570) %81, i8 signext 10)
  br label %97

97:                                               ; preds = %88, %91
  %98 = phi i8 [ %90, %88 ], [ %96, %91 ]
  %99 = call nonnull align 8 dereferenceable(8) %"class.std::basic_ostream"* @_ZNSo3putEc(%"class.std::basic_ostream"* nonnull align 8 dereferenceable(8) %71, i8 signext %98)
  %100 = call nonnull align 8 dereferenceable(8) %"class.std::basic_ostream"* @_ZNSo5flushEv(%"class.std::basic_ostream"* nonnull align 8 dereferenceable(8) %99)
  %101 = add nuw nsw i64 %68, 1
  %102 = load i32, i32* %4, align 4, !tbaa !5
  %103 = sext i32 %102 to i64
  %104 = icmp slt i64 %101, %103
  br i1 %104, label %67, label %105, !llvm.loop !21

105:                                              ; preds = %97, %0, %14
  call void @llvm.lifetime.end.p0i8(i64 40000, i8* nonnull %10) #8
  call void @llvm.lifetime.end.p0i8(i64 4, i8* nonnull %9) #8
  call void @llvm.lifetime.end.p0i8(i64 40000, i8* nonnull %8) #8
  call void @llvm.lifetime.end.p0i8(i64 40000, i8* nonnull %7) #8
  call void @llvm.lifetime.end.p0i8(i64 40000, i8* nonnull %6) #8
  ret i32 0
}

; Function Attrs: argmemonly mustprogress nofree nosync nounwind willreturn
declare void @llvm.lifetime.start.p0i8(i64 immarg, i8* nocapture) #4

; Function Attrs: argmemonly mustprogress nofree nounwind willreturn writeonly
declare void @llvm.memset.p0i8.i64(i8* nocapture writeonly, i8, i64, i1 immarg) #5

declare nonnull align 8 dereferenceable(16) %"class.std::basic_istream"* @_ZNSirsERi(%"class.std::basic_istream"* nonnull align 8 dereferenceable(16), i32* nonnull align 4 dereferenceable(4)) local_unnamed_addr #0

declare nonnull align 8 dereferenceable(8) %"class.std::basic_ostream"* @_ZNSolsEi(%"class.std::basic_ostream"* nonnull align 8 dereferenceable(8), i32) local_unnamed_addr #0

; Function Attrs: argmemonly mustprogress nofree nosync nounwind willreturn
declare void @llvm.lifetime.end.p0i8(i64 immarg, i8* nocapture) #4

declare nonnull align 8 dereferenceable(8) %"class.std::basic_ostream"* @_ZNSo3putEc(%"class.std::basic_ostream"* nonnull align 8 dereferenceable(8), i8 signext) local_unnamed_addr #0

declare nonnull align 8 dereferenceable(8) %"class.std::basic_ostream"* @_ZNSo5flushEv(%"class.std::basic_ostream"* nonnull align 8 dereferenceable(8)) local_unnamed_addr #0

; Function Attrs: noreturn
declare void @_ZSt16__throw_bad_castv() local_unnamed_addr #6

declare void @_ZNKSt5ctypeIcE13_M_widen_initEv(%"class.std::ctype"* nonnull align 8 dereferenceable(570)) local_unnamed_addr #0

; Function Attrs: sspstrong uwtable
define internal void @_GLOBAL__sub_I_4085.cpp() #7 section ".text.startup" {
  tail call void @_ZNSt8ios_base4InitC1Ev(%"class.std::ios_base::Init"* nonnull align 1 dereferenceable(1) @_ZStL8__ioinit)
  %1 = tail call i32 @__cxa_atexit(void (i8*)* bitcast (void (%"class.std::ios_base::Init"*)* @_ZNSt8ios_base4InitD1Ev to void (i8*)*), i8* getelementptr inbounds (%"class.std::ios_base::Init", %"class.std::ios_base::Init"* @_ZStL8__ioinit, i64 0, i32 0), i8* nonnull @__dso_handle) #8
  ret void
}


!llvm.module.flags = !{!0, !1, !2, !3}
!llvm.ident = !{!4}

!0 = !{i32 1, !"wchar_size", i32 4}
!1 = !{i32 7, !"PIC Level", i32 2}
!2 = !{i32 7, !"PIE Level", i32 2}
!3 = !{i32 7, !"uwtable", i32 1}
!4 = !{!"clang version 13.0.0"}
!5 = !{!6, !6, i64 0}
!6 = !{!"int", !7, i64 0}
!7 = !{!"omnipotent char", !8, i64 0}
!8 = !{!"Simple C++ TBAA"}
!9 = distinct !{!9, !10}
!10 = !{!"llvm.loop.mustprogress"}
!11 = distinct !{!11, !10}
!12 = !{!13, !13, i64 0}
!13 = !{!"vtable pointer", !8, i64 0}
!14 = !{!15, !16, i64 240}
!15 = !{!"_ZTSSt9basic_iosIcSt11char_traitsIcEE", !16, i64 216, !7, i64 224, !17, i64 225, !16, i64 232, !16, i64 240, !16, i64 248, !16, i64 256}
!16 = !{!"any pointer", !7, i64 0}
!17 = !{!"bool", !7, i64 0}
!18 = !{!19, !7, i64 56}
!19 = !{!"_ZTSSt5ctypeIcE", !16, i64 16, !17, i64 24, !16, i64 32, !16, i64 40, !16, i64 48, !7, i64 56, !7, i64 57, !7, i64 313, !7, i64 569}
!20 = !{!7, !7, i64 0}
!21 = distinct !{!21, !10}
